target datalayout = "e-m:e-p270:32:32-p271:32:32-p272:64:64-i64:64-i128:128-f80:128-n8:16:32:64-S128"
target triple = "x86_64-pc-linux-gnu"

%"class.clang::MultiplexExternalSemaSource" = type { %"class.clang::ExternalSemaSource", %"class.llvm::SmallVector" }
%"class.clang::ExternalSemaSource" = type { %"class.clang::ExternalASTSource" }
%"class.clang::ExternalASTSource" = type { ptr, %"class.llvm::RefCountedBase", i32 }
%"class.llvm::RefCountedBase" = type { i32 }
%"class.llvm::SmallVector" = type { %"class.llvm::SmallVectorImpl", %"struct.llvm::SmallVectorStorage" }
%"class.llvm::SmallVectorImpl" = type { %"class.llvm::SmallVectorTemplateBase" }
%"class.llvm::SmallVectorTemplateBase" = type { %"class.llvm::SmallVectorTemplateCommon" }
%"class.llvm::SmallVectorTemplateCommon" = type { %"class.llvm::SmallVectorBase" }
%"class.llvm::SmallVectorBase" = type { ptr, i32, i32 }
%"struct.llvm::SmallVectorStorage" = type { [16 x i8] }

; Function Attrs: mustprogress nounwind uwtable
define linkonce_odr hidden noundef ptr @_ZN4llvm25SmallVectorTemplateCommonIPN5clang18ExternalSemaSourceEvE5beginEv(ptr noundef nonnull align 8 dereferenceable(16) %0) #0 comdat align 2 {
  %2 = alloca ptr, align 8
  store ptr %0, ptr %2, align 8
  %3 = load ptr, ptr %2, align 8
  %4 = getelementptr inbounds nuw %"class.llvm::SmallVectorBase", ptr %3, i32 0, i32 0
  %5 = load ptr, ptr %4, align 8
  ret ptr %5
}

; Function Attrs: mustprogress nounwind uwtable
define linkonce_odr hidden noundef nonnull align 8 dereferenceable(8) ptr @_ZN4llvm25SmallVectorTemplateCommonIPN5clang18ExternalSemaSourceEvEixEm(ptr noundef nonnull align 8 dereferenceable(16) %0, i64 noundef %1) #0 comdat align 2 {
  %3 = alloca ptr, align 8
  %4 = alloca i64, align 8
  store ptr %0, ptr %3, align 8
  store i64 %1, ptr %4, align 8
  %5 = load ptr, ptr %3, align 8
  %6 = call noundef ptr @_ZN4llvm25SmallVectorTemplateCommonIPN5clang18ExternalSemaSourceEvE5beginEv(ptr noundef nonnull align 8 dereferenceable(16) %5)
  %7 = load i64, ptr %4, align 8
  %8 = getelementptr inbounds ptr, ptr %6, i64 %7
  ret ptr %8
}

; Function Attrs: mustprogress nounwind uwtable
define dso_local noundef ptr @_ZN5clang27MultiplexExternalSemaSource9getModuleEj(ptr noundef nonnull align 8 dereferenceable(48) %0, i32 noundef %1) unnamed_addr #0 align 2 {
  %3 = alloca ptr, align 8
  %4 = alloca ptr, align 8
  %5 = alloca i32, align 4
  %6 = alloca i64, align 8
  %7 = alloca ptr, align 8
  store ptr %0, ptr %4, align 8
  store i32 %1, ptr %5, align 4
  %8 = load ptr, ptr %4, align 8
  store i64 0, ptr %6, align 8
  br label %9

9:                                                ; preds = %29, %2
  %10 = load i64, ptr %6, align 8
  %11 = getelementptr inbounds nuw %"class.clang::MultiplexExternalSemaSource", ptr %8, i32 0, i32 1
  %12 = call noundef i64 @_ZNK4llvm15SmallVectorBaseIjE4sizeEv(ptr noundef nonnull align 8 dereferenceable(16) %11)
  %13 = icmp ult i64 %10, %12
  br i1 %13, label %14, label %32

14:                                               ; preds = %9
  %15 = getelementptr inbounds nuw %"class.clang::MultiplexExternalSemaSource", ptr %8, i32 0, i32 1
  %16 = load i64, ptr %6, align 8
  %17 = call noundef nonnull align 8 dereferenceable(8) ptr @_ZN4llvm25SmallVectorTemplateCommonIPN5clang18ExternalSemaSourceEvEixEm(ptr noundef nonnull align 8 dereferenceable(16) %15, i64 noundef %16)
  %18 = load ptr, ptr %17, align 8
  %19 = load i32, ptr %5, align 4
  %20 = load ptr, ptr %18, align 8
  %21 = getelementptr inbounds ptr, ptr %20, i64 11
  %22 = load ptr, ptr %21, align 8
  %23 = call noundef ptr %22(ptr noundef nonnull align 8 dereferenceable(16) %18, i32 noundef %19)
  store ptr %23, ptr %7, align 8
  %24 = load ptr, ptr %7, align 8
  %25 = icmp ne ptr %24, null
  br i1 %25, label %26, label %28

26:                                               ; preds = %14
  %27 = load ptr, ptr %7, align 8
  store ptr %27, ptr %3, align 8
  br label %33

28:                                               ; preds = %14
  br label %29

29:                                               ; preds = %28
  %30 = load i64, ptr %6, align 8
  %31 = add i64 %30, 1
  store i64 %31, ptr %6, align 8
  br label %9, !llvm.loop !22

32:                                               ; preds = %9
  store ptr null, ptr %3, align 8
  br label %33

33:                                               ; preds = %32, %26
  %34 = load ptr, ptr %3, align 8
  ret ptr %34
}